; ModuleID = '37/1507.c'
source_filename = "37/1507.c"
target datalayout = "e-m:e-p270:32:32-p271:32:32-p272:64:64-i64:64-f80:128-n8:16:32:64-S128"
target triple = "x86_64-pc-linux-gnu"

@.str = private unnamed_addr constant [3 x i8] c"%d\00", align 1
@.str.1 = private unnamed_addr constant [3 x i8] c"%s\00", align 1
@.str.2 = private unnamed_addr constant [4 x i8] c"%c\0A\00", align 1
@.str.3 = private unnamed_addr constant [4 x i8] c"no\0A\00", align 1

; Function Attrs: noinline nounwind uwtable
define dso_local i32 @main() #0 {
  %1 = alloca i32, align 4
  %2 = alloca i32, align 4
  %3 = alloca i32, align 4
  %4 = alloca i32, align 4
  %5 = alloca i32, align 4
  %6 = alloca i32, align 4
  %7 = alloca [100005 x i8], align 16
  %8 = alloca [100005 x i32], align 16
  store i32 0, i32* %1, align 4
  store i32 0, i32* %5, align 4
  %9 = call i32 (i8*, ...) @__isoc99_scanf(i8* getelementptr inbounds ([3 x i8], [3 x i8]* @.str, i64 0, i64 0), i32* %2)
  store i32 0, i32* %3, align 4
  br label %10

10:                                               ; preds = %107, %0
  %11 = load i32, i32* %3, align 4
  %12 = load i32, i32* %2, align 4
  %13 = icmp slt i32 %11, %12
  br i1 %13, label %14, label %110

14:                                               ; preds = %10
  store i32 0, i32* %4, align 4
  br label %15

15:                                               ; preds = %22, %14
  %16 = load i32, i32* %4, align 4
  %17 = icmp slt i32 %16, 100005
  br i1 %17, label %18, label %25

18:                                               ; preds = %15
  %19 = load i32, i32* %4, align 4
  %20 = sext i32 %19 to i64
  %21 = getelementptr inbounds [100005 x i32], [100005 x i32]* %8, i64 0, i64 %20
  store i32 0, i32* %21, align 4
  br label %22

22:                                               ; preds = %18
  %23 = load i32, i32* %4, align 4
  %24 = add nsw i32 %23, 1
  store i32 %24, i32* %4, align 4
  br label %15

25:                                               ; preds = %15
  %26 = getelementptr inbounds [100005 x i8], [100005 x i8]* %7, i64 0, i64 0
  %27 = call i32 (i8*, ...) @__isoc99_scanf(i8* getelementptr inbounds ([3 x i8], [3 x i8]* @.str.1, i64 0, i64 0), i8* %26)
  store i32 0, i32* %4, align 4
  br label %28

28:                                               ; preds = %71, %25
  %29 = load i32, i32* %4, align 4
  %30 = sext i32 %29 to i64
  %31 = getelementptr inbounds [100005 x i8], [100005 x i8]* %7, i64 0, i64 0
  %32 = call i64 @strlen(i8* %31) #3
  %33 = icmp ult i64 %30, %32
  br i1 %33, label %34, label %74

34:                                               ; preds = %28
  %35 = load i32, i32* %4, align 4
  %36 = add nsw i32 %35, 1
  store i32 %36, i32* %6, align 4
  br label %37

37:                                               ; preds = %67, %34
  %38 = load i32, i32* %6, align 4
  %39 = sext i32 %38 to i64
  %40 = getelementptr inbounds [100005 x i8], [100005 x i8]* %7, i64 0, i64 0
  %41 = call i64 @strlen(i8* %40) #3
  %42 = icmp ult i64 %39, %41
  br i1 %42, label %43, label %70

43:                                               ; preds = %37
  %44 = load i32, i32* %4, align 4
  %45 = sext i32 %44 to i64
  %46 = getelementptr inbounds [100005 x i8], [100005 x i8]* %7, i64 0, i64 %45
  %47 = load i8, i8* %46, align 1
  %48 = sext i8 %47 to i32
  %49 = load i32, i32* %6, align 4
  %50 = sext i32 %49 to i64
  %51 = getelementptr inbounds [100005 x i8], [100005 x i8]* %7, i64 0, i64 %50
  %52 = load i8, i8* %51, align 1
  %53 = sext i8 %52 to i32
  %54 = icmp eq i32 %48, %53
  br i1 %54, label %55, label %66

55:                                               ; preds = %43
  %56 = load i32, i32* %4, align 4
  %57 = sext i32 %56 to i64
  %58 = getelementptr inbounds [100005 x i32], [100005 x i32]* %8, i64 0, i64 %57
  %59 = load i32, i32* %58, align 4
  %60 = add nsw i32 %59, 1
  store i32 %60, i32* %58, align 4
  %61 = load i32, i32* %6, align 4
  %62 = sext i32 %61 to i64
  %63 = getelementptr inbounds [100005 x i32], [100005 x i32]* %8, i64 0, i64 %62
  %64 = load i32, i32* %63, align 4
  %65 = add nsw i32 %64, 1
  store i32 %65, i32* %63, align 4
  br label %66

66:                                               ; preds = %55, %43
  br label %67

67:                                               ; preds = %66
  %68 = load i32, i32* %6, align 4
  %69 = add nsw i32 %68, 1
  store i32 %69, i32* %6, align 4
  br label %37

70:                                               ; preds = %37
  br label %71

71:                                               ; preds = %70
  %72 = load i32, i32* %4, align 4
  %73 = add nsw i32 %72, 1
  store i32 %73, i32* %4, align 4
  br label %28

74:                                               ; preds = %28
  store i32 0, i32* %4, align 4
  br label %75

75:                                               ; preds = %95, %74
  %76 = load i32, i32* %4, align 4
  %77 = sext i32 %76 to i64
  %78 = getelementptr inbounds [100005 x i8], [100005 x i8]* %7, i64 0, i64 0
  %79 = call i64 @strlen(i8* %78) #3
  %80 = icmp ult i64 %77, %79
  br i1 %80, label %81, label %98

81:                                               ; preds = %75
  %82 = load i32, i32* %4, align 4
  %83 = sext i32 %82 to i64
  %84 = getelementptr inbounds [100005 x i32], [100005 x i32]* %8, i64 0, i64 %83
  %85 = load i32, i32* %84, align 4
  %86 = icmp eq i32 %85, 0
  br i1 %86, label %87, label %94

87:                                               ; preds = %81
  %88 = load i32, i32* %4, align 4
  %89 = sext i32 %88 to i64
  %90 = getelementptr inbounds [100005 x i8], [100005 x i8]* %7, i64 0, i64 %89
  %91 = load i8, i8* %90, align 1
  %92 = sext i8 %91 to i32
  %93 = call i32 (i8*, ...) @printf(i8* getelementptr inbounds ([4 x i8], [4 x i8]* @.str.2, i64 0, i64 0), i32 %92)
  br label %98

94:                                               ; preds = %81
  br label %95

95:                                               ; preds = %94
  %96 = load i32, i32* %4, align 4
  %97 = add nsw i32 %96, 1
  store i32 %97, i32* %4, align 4
  br label %75

98:                                               ; preds = %87, %75
  %99 = load i32, i32* %4, align 4
  %100 = sext i32 %99 to i64
  %101 = getelementptr inbounds [100005 x i8], [100005 x i8]* %7, i64 0, i64 0
  %102 = call i64 @strlen(i8* %101) #3
  %103 = icmp eq i64 %100, %102
  br i1 %103, label %104, label %106

104:                                              ; preds = %98
  %105 = call i32 (i8*, ...) @printf(i8* getelementptr inbounds ([4 x i8], [4 x i8]* @.str.3, i64 0, i64 0))
  br label %106

106:                                              ; preds = %104, %98
  br label %107

107:                                              ; preds = %106
  %108 = load i32, i32* %3, align 4
  %109 = add nsw i32 %108, 1
  store i32 %109, i32* %3, align 4
  br label %10

110:                                              ; preds = %10
  ret i32 0
}

declare dso_local i32 @__isoc99_scanf(i8*, ...) #1

; Function Attrs: nounwind readonly
declare dso_local i64 @strlen(i8*) #2

declare dso_local i32 @printf(i8*, ...) #1


!llvm.module.flags = !{!0}
!llvm.ident = !{!1}

!0 = !{i32 1, !"wchar_size", i32 4}
!1 = !{!"clang version 10.0.0-4ubuntu1 "}
